target datalayout = "e-m:e-p270:32:32-p271:32:32-p272:64:64-i64:64-i128:128-f80:128-n8:16:32:64-S128"
target triple = "x86_64-unknown-linux-gnu"

%"class.google::protobuf::io::ZeroCopyInputStream" = type { ptr }
%"class.std::basic_string_view" = type { i64, ptr }
%"class.absl::lts_20230802::Cord::ChunkIterator" = type { %"class.std::basic_string_view", ptr, i64, %"class.absl::lts_20230802::cord_internal::CordRepBtreeReader" }
%"class.absl::lts_20230802::cord_internal::CordRepBtreeReader" = type { i64, %"class.absl::lts_20230802::cord_internal::CordRepBtreeNavigator" }
%"class.absl::lts_20230802::cord_internal::CordRepBtreeNavigator" = type { i32, [12 x i8], [12 x ptr] }
%"class.google::protobuf::io::CordInputStream" = type { %"class.google::protobuf::io::ZeroCopyInputStream", %"class.absl::lts_20230802::Cord::CharIterator", i64, i64, ptr, i64, i64 }
%"class.absl::lts_20230802::Cord::CharIterator" = type { %"class.absl::lts_20230802::Cord::ChunkIterator" }
%"class.absl::lts_20230802::Cord" = type { %"class.absl::lts_20230802::Cord::InlineRep" }
%"class.absl::lts_20230802::Cord::InlineRep" = type { %"class.absl::lts_20230802::cord_internal::InlineData" }
%"class.absl::lts_20230802::cord_internal::InlineData" = type { %"struct.absl::lts_20230802::cord_internal::InlineData::Rep" }
%"struct.absl::lts_20230802::cord_internal::InlineData::Rep" = type { %union.anon.10 }
%union.anon.10 = type { %"struct.absl::lts_20230802::cord_internal::InlineData::Rep::AsTree" }
%"struct.absl::lts_20230802::cord_internal::InlineData::Rep::AsTree" = type { i64, ptr }
%"struct.absl::lts_20230802::cord_internal::CordRep" = type { i64, %"class.absl::lts_20230802::cord_internal::RefcountAndFlags", i8, [3 x i8] }
%"class.absl::lts_20230802::cord_internal::RefcountAndFlags" = type { %"struct.std::atomic" }
%"struct.std::atomic" = type { %"struct.std::__atomic_base" }
%"struct.std::__atomic_base" = type { i32 }

@_ZTVN6google8protobuf2io19ZeroCopyInputStreamE = external unnamed_addr constant { [9 x ptr] }, align 8

; Function Attrs: mustprogress nounwind uwtable
define linkonce_odr hidden noundef i64 @_ZNK4absl12lts_2023080213cord_internal10InlineData3Rep11inline_sizeEv(ptr noundef nonnull align 8 dereferenceable(16) %this) #4 comdat align 2 {
entry:
  %this.addr = alloca ptr, align 8
  store ptr %this, ptr %this.addr, align 8
  %this1 = load ptr, ptr %this.addr, align 8
  %call = call noundef signext i8 @_ZNK4absl12lts_2023080213cord_internal10InlineData3Rep3tagEv(ptr noundef nonnull align 8 dereferenceable(16) %this1)
  %conv = sext i8 %call to i64
  %shr = lshr i64 %conv, 1
  ret i64 %shr
}

; Function Attrs: mustprogress nounwind uwtable
define linkonce_odr hidden noundef ptr @_ZNK4absl12lts_2023080213cord_internal10InlineData3Rep4treeEv(ptr noundef nonnull align 8 dereferenceable(16) %this) #4 comdat align 2 {
entry:
  %this.addr = alloca ptr, align 8
  store ptr %this, ptr %this.addr, align 8
  %this1 = load ptr, ptr %this.addr, align 8
  %0 = getelementptr inbounds %"struct.absl::lts_20230802::cord_internal::InlineData::Rep", ptr %this1, i32 0, i32 0
  %rep = getelementptr inbounds %"struct.absl::lts_20230802::cord_internal::InlineData::Rep::AsTree", ptr %0, i32 0, i32 1
  %1 = load ptr, ptr %rep, align 8
  ret ptr %1
}

; Function Attrs: mustprogress nounwind uwtable
define linkonce_odr hidden noundef signext i8 @_ZNK4absl12lts_2023080213cord_internal10InlineData3Rep3tagEv(ptr noundef nonnull align 8 dereferenceable(16) %this) #4 comdat align 2 {
entry:
  %this.addr = alloca ptr, align 8
  store ptr %this, ptr %this.addr, align 8
  %this1 = load ptr, ptr %this.addr, align 8
  %arrayidx = getelementptr inbounds i8, ptr %this1, i64 0
  %0 = load i8, ptr %arrayidx, align 1
  ret i8 %0
}

; Function Attrs: mustprogress uwtable
define linkonce_odr hidden noundef i64 @_ZNK4absl12lts_2023080213cord_internal10InlineData11inline_sizeEv(ptr noundef nonnull align 8 dereferenceable(16) %this) #5 comdat align 2 {
entry:
  %this.addr = alloca ptr, align 8
  store ptr %this, ptr %this.addr, align 8
  %this1 = load ptr, ptr %this.addr, align 8
  %rep_ = getelementptr inbounds %"class.absl::lts_20230802::cord_internal::InlineData", ptr %this1, i32 0, i32 0
  %call = call noundef i64 @_ZNK4absl12lts_2023080213cord_internal10InlineData3Rep11inline_sizeEv(ptr noundef nonnull align 8 dereferenceable(16) %rep_)
  ret i64 %call
}

; Function Attrs: mustprogress uwtable
define linkonce_odr hidden noundef ptr @_ZNK4absl12lts_2023080213cord_internal10InlineData7as_treeEv(ptr noundef nonnull align 8 dereferenceable(16) %this) #5 comdat align 2 {
entry:
  %this.addr = alloca ptr, align 8
  store ptr %this, ptr %this.addr, align 8
  %this1 = load ptr, ptr %this.addr, align 8
  %rep_ = getelementptr inbounds %"class.absl::lts_20230802::cord_internal::InlineData", ptr %this1, i32 0, i32 0
  %call = call noundef ptr @_ZNK4absl12lts_2023080213cord_internal10InlineData3Rep4treeEv(ptr noundef nonnull align 8 dereferenceable(16) %rep_)
  ret ptr %call
}

; Function Attrs: mustprogress uwtable
define linkonce_odr hidden noundef zeroext i1 @_ZNK4absl12lts_2023080213cord_internal10InlineData7is_treeEv(ptr noundef nonnull align 8 dereferenceable(16) %this) #5 comdat align 2 {
entry:
  %this.addr = alloca ptr, align 8
  store ptr %this, ptr %this.addr, align 8
  %this1 = load ptr, ptr %this.addr, align 8
  %rep_ = getelementptr inbounds %"class.absl::lts_20230802::cord_internal::InlineData", ptr %this1, i32 0, i32 0
  %call = call noundef signext i8 @_ZNK4absl12lts_2023080213cord_internal10InlineData3Rep3tagEv(ptr noundef nonnull align 8 dereferenceable(16) %rep_)
  %conv = sext i8 %call to i32
  %and = and i32 %conv, 1
  %cmp = icmp ne i32 %and, 0
  ret i1 %cmp
}

; Function Attrs: mustprogress nounwind uwtable
define linkonce_odr hidden { i64, ptr } @_ZNK4absl12lts_202308024Cord13ChunkIteratordeEv(ptr noundef nonnull align 8 dereferenceable(152) %this) #4 comdat align 2 {
entry:
  %retval = alloca %"class.std::basic_string_view", align 8
  %this.addr = alloca ptr, align 8
  store ptr %this, ptr %this.addr, align 8
  %this1 = load ptr, ptr %this.addr, align 8
  %current_chunk_ = getelementptr inbounds %"class.absl::lts_20230802::Cord::ChunkIterator", ptr %this1, i32 0, i32 0
  call void @llvm.memcpy.p0.p0.i64(ptr align 8 %retval, ptr align 8 %current_chunk_, i64 16, i1 false)
  %0 = load { i64, ptr }, ptr %retval, align 8
  ret { i64, ptr } %0
}

; Function Attrs: mustprogress uwtable
define linkonce_odr hidden noundef i64 @_ZNK4absl12lts_202308024Cord9InlineRep11inline_sizeEv(ptr noundef nonnull align 8 dereferenceable(16) %this) #5 comdat align 2 {
entry:
  %this.addr = alloca ptr, align 8
  store ptr %this, ptr %this.addr, align 8
  %this1 = load ptr, ptr %this.addr, align 8
  %data_ = getelementptr inbounds %"class.absl::lts_20230802::Cord::InlineRep", ptr %this1, i32 0, i32 0
  %call = call noundef i64 @_ZNK4absl12lts_2023080213cord_internal10InlineData11inline_sizeEv(ptr noundef nonnull align 8 dereferenceable(16) %data_)
  ret i64 %call
}

; Function Attrs: mustprogress uwtable
define linkonce_odr hidden noundef ptr @_ZNK4absl12lts_202308024Cord9InlineRep7as_treeEv(ptr noundef nonnull align 8 dereferenceable(16) %this) #5 comdat align 2 {
entry:
  %this.addr = alloca ptr, align 8
  store ptr %this, ptr %this.addr, align 8
  %this1 = load ptr, ptr %this.addr, align 8
  %data_ = getelementptr inbounds %"class.absl::lts_20230802::Cord::InlineRep", ptr %this1, i32 0, i32 0
  %call = call noundef ptr @_ZNK4absl12lts_2023080213cord_internal10InlineData7as_treeEv(ptr noundef nonnull align 8 dereferenceable(16) %data_)
  ret ptr %call
}

; Function Attrs: mustprogress uwtable
define linkonce_odr hidden noundef zeroext i1 @_ZNK4absl12lts_202308024Cord9InlineRep7is_treeEv(ptr noundef nonnull align 8 dereferenceable(16) %this) #5 comdat align 2 {
entry:
  %this.addr = alloca ptr, align 8
  store ptr %this, ptr %this.addr, align 8
  %this1 = load ptr, ptr %this.addr, align 8
  %data_ = getelementptr inbounds %"class.absl::lts_20230802::Cord::InlineRep", ptr %this1, i32 0, i32 0
  %call = call noundef zeroext i1 @_ZNK4absl12lts_2023080213cord_internal10InlineData7is_treeEv(ptr noundef nonnull align 8 dereferenceable(16) %data_)
  ret i1 %call
}

; Function Attrs: mustprogress nounwind uwtable
define linkonce_odr hidden noundef i64 @_ZNKSt17basic_string_viewIcSt11char_traitsIcEE4sizeEv(ptr noundef nonnull align 8 dereferenceable(16) %this) #4 comdat align 2 {
entry:
  %this.addr = alloca ptr, align 8
  store ptr %this, ptr %this.addr, align 8
  %this1 = load ptr, ptr %this.addr, align 8
  %_M_len = getelementptr inbounds %"class.std::basic_string_view", ptr %this1, i32 0, i32 0
  %0 = load i64, ptr %_M_len, align 8
  ret i64 %0
}

; Function Attrs: mustprogress nounwind uwtable
define linkonce_odr hidden noundef ptr @_ZNKSt17basic_string_viewIcSt11char_traitsIcEE4dataEv(ptr noundef nonnull align 8 dereferenceable(16) %this) #4 comdat align 2 {
entry:
  %this.addr = alloca ptr, align 8
  store ptr %this, ptr %this.addr, align 8
  %this1 = load ptr, ptr %this.addr, align 8
  %_M_str = getelementptr inbounds %"class.std::basic_string_view", ptr %this1, i32 0, i32 1
  %0 = load ptr, ptr %_M_str, align 8
  ret ptr %0
}

; Function Attrs: mustprogress nounwind uwtable
define linkonce_odr hidden { i64, ptr } @_ZN4absl12lts_202308024Cord14ChunkRemainingERKNS1_12CharIteratorE(ptr noundef nonnull align 8 dereferenceable(152) %it) #4 comdat align 2 {
entry:
  %retval = alloca %"class.std::basic_string_view", align 8
  %it.addr = alloca ptr, align 8
  store ptr %it, ptr %it.addr, align 8
  %0 = load ptr, ptr %it.addr, align 8
  %chunk_iterator_ = getelementptr inbounds %"class.absl::lts_20230802::Cord::CharIterator", ptr %0, i32 0, i32 0
  %call = call { i64, ptr } @_ZNK4absl12lts_202308024Cord13ChunkIteratordeEv(ptr noundef nonnull align 8 dereferenceable(152) %chunk_iterator_)
  %1 = getelementptr inbounds { i64, ptr }, ptr %retval, i32 0, i32 0
  %2 = extractvalue { i64, ptr } %call, 0
  store i64 %2, ptr %1, align 8
  %3 = getelementptr inbounds { i64, ptr }, ptr %retval, i32 0, i32 1
  %4 = extractvalue { i64, ptr } %call, 1
  store ptr %4, ptr %3, align 8
  %5 = load { i64, ptr }, ptr %retval, align 8
  ret { i64, ptr } %5
}

; Function Attrs: mustprogress uwtable
define linkonce_odr hidden noundef i64 @_ZNK4absl12lts_202308024Cord9InlineRep4sizeEv(ptr noundef nonnull align 8 dereferenceable(16) %this) #5 comdat align 2 {
entry:
  %this.addr = alloca ptr, align 8
  store ptr %this, ptr %this.addr, align 8
  %this1 = load ptr, ptr %this.addr, align 8
  %call = call noundef zeroext i1 @_ZNK4absl12lts_202308024Cord9InlineRep7is_treeEv(ptr noundef nonnull align 8 dereferenceable(16) %this1)
  br i1 %call, label %cond.true, label %cond.false

cond.true:                                        ; preds = %entry
  %call2 = call noundef ptr @_ZNK4absl12lts_202308024Cord9InlineRep7as_treeEv(ptr noundef nonnull align 8 dereferenceable(16) %this1)
  %length = getelementptr inbounds %"struct.absl::lts_20230802::cord_internal::CordRep", ptr %call2, i32 0, i32 0
  %0 = load i64, ptr %length, align 8
  br label %cond.end

cond.false:                                       ; preds = %entry
  %call3 = call noundef i64 @_ZNK4absl12lts_202308024Cord9InlineRep11inline_sizeEv(ptr noundef nonnull align 8 dereferenceable(16) %this1)
  br label %cond.end

cond.end:                                         ; preds = %cond.false, %cond.true
  %cond = phi i64 [ %0, %cond.true ], [ %call3, %cond.false ]
  ret i64 %cond
}

; Function Attrs: mustprogress uwtable
define linkonce_odr hidden void @_ZN4absl12lts_202308024Cord12CharIteratorC2EPKS1_(ptr noundef nonnull align 8 dereferenceable(152) %this, ptr noundef %cord) unnamed_addr #5 comdat align 2 {
entry:
  %this.addr = alloca ptr, align 8
  %cord.addr = alloca ptr, align 8
  store ptr %this, ptr %this.addr, align 8
  store ptr %cord, ptr %cord.addr, align 8
  %this1 = load ptr, ptr %this.addr, align 8
  %chunk_iterator_ = getelementptr inbounds %"class.absl::lts_20230802::Cord::CharIterator", ptr %this1, i32 0, i32 0
  %0 = load ptr, ptr %cord.addr, align 8
  call void @_ZN4absl12lts_202308024Cord13ChunkIteratorC2EPKS1_(ptr noundef nonnull align 8 dereferenceable(152) %chunk_iterator_, ptr noundef %0)
  ret void
}

; Function Attrs: mustprogress nounwind uwtable
define linkonce_odr hidden void @_ZN6google8protobuf2io19ZeroCopyInputStreamD2Ev(ptr noundef nonnull align 8 dereferenceable(8) %this) unnamed_addr #4 comdat align 2 {
entry:
  %this.addr = alloca ptr, align 8
  store ptr %this, ptr %this.addr, align 8
  ret void
}

; Function Attrs: mustprogress uwtable
define noundef zeroext i1 @_ZN6google8protobuf2io15CordInputStream13LoadChunkDataEv(ptr noundef nonnull align 8 dereferenceable(200) %this) #5 align 2 {
entry:
  %retval = alloca i1, align 1
  %this.addr = alloca ptr, align 8
  %sv = alloca %"class.std::basic_string_view", align 8
  store ptr %this, ptr %this.addr, align 8
  %this1 = load ptr, ptr %this.addr, align 8
  %bytes_remaining_ = getelementptr inbounds %"class.google::protobuf::io::CordInputStream", ptr %this1, i32 0, i32 3
  %0 = load i64, ptr %bytes_remaining_, align 8
  %cmp = icmp ne i64 %0, 0
  br i1 %cmp, label %if.then, label %if.end

if.then:                                          ; preds = %entry
  %it_ = getelementptr inbounds %"class.google::protobuf::io::CordInputStream", ptr %this1, i32 0, i32 1
  %call = call { i64, ptr } @_ZN4absl12lts_202308024Cord14ChunkRemainingERKNS1_12CharIteratorE(ptr noundef nonnull align 8 dereferenceable(152) %it_)
  %1 = getelementptr inbounds { i64, ptr }, ptr %sv, i32 0, i32 0
  %2 = extractvalue { i64, ptr } %call, 0
  store i64 %2, ptr %1, align 8
  %3 = getelementptr inbounds { i64, ptr }, ptr %sv, i32 0, i32 1
  %4 = extractvalue { i64, ptr } %call, 1
  store ptr %4, ptr %3, align 8
  %call2 = call noundef ptr @_ZNKSt17basic_string_viewIcSt11char_traitsIcEE4dataEv(ptr noundef nonnull align 8 dereferenceable(16) %sv) #3
  %data_ = getelementptr inbounds %"class.google::protobuf::io::CordInputStream", ptr %this1, i32 0, i32 4
  store ptr %call2, ptr %data_, align 8
  %call3 = call noundef i64 @_ZNKSt17basic_string_viewIcSt11char_traitsIcEE4sizeEv(ptr noundef nonnull align 8 dereferenceable(16) %sv) #3
  %available_ = getelementptr inbounds %"class.google::protobuf::io::CordInputStream", ptr %this1, i32 0, i32 6
  store i64 %call3, ptr %available_, align 8
  %size_ = getelementptr inbounds %"class.google::protobuf::io::CordInputStream", ptr %this1, i32 0, i32 5
  store i64 %call3, ptr %size_, align 8
  store i1 true, ptr %retval, align 1
  br label %return

if.end:                                           ; preds = %entry
  %available_4 = getelementptr inbounds %"class.google::protobuf::io::CordInputStream", ptr %this1, i32 0, i32 6
  store i64 0, ptr %available_4, align 8
  %size_5 = getelementptr inbounds %"class.google::protobuf::io::CordInputStream", ptr %this1, i32 0, i32 5
  store i64 0, ptr %size_5, align 8
  store i1 false, ptr %retval, align 1
  br label %return

return:                                           ; preds = %if.end, %if.then
  %5 = load i1, ptr %retval, align 1
  ret i1 %5
}

; Function Attrs: mustprogress uwtable
define linkonce_odr hidden noundef i64 @_ZNK4absl12lts_202308024Cord4sizeEv(ptr noundef nonnull align 8 dereferenceable(16) %this) #5 comdat align 2 {
entry:
  %this.addr = alloca ptr, align 8
  store ptr %this, ptr %this.addr, align 8
  %this1 = load ptr, ptr %this.addr, align 8
  %contents_ = getelementptr inbounds %"class.absl::lts_20230802::Cord", ptr %this1, i32 0, i32 0
  %call = call noundef i64 @_ZNK4absl12lts_202308024Cord9InlineRep4sizeEv(ptr noundef nonnull align 8 dereferenceable(16) %contents_)
  ret i64 %call
}

; Function Attrs: mustprogress uwtable
define linkonce_odr hidden void @_ZNK4absl12lts_202308024Cord10char_beginEv(ptr noalias sret(%"class.absl::lts_20230802::Cord::CharIterator") align 8 %agg.result, ptr noundef nonnull align 8 dereferenceable(16) %this) #5 comdat align 2 {
entry:
  %this.addr = alloca ptr, align 8
  store ptr %this, ptr %this.addr, align 8
  %this1 = load ptr, ptr %this.addr, align 8
  call void @_ZN4absl12lts_202308024Cord12CharIteratorC2EPKS1_(ptr noundef nonnull align 8 dereferenceable(152) %agg.result, ptr noundef %this1)
  ret void
}

; Function Attrs: mustprogress nounwind uwtable
define linkonce_odr hidden void @_ZN6google8protobuf2io19ZeroCopyInputStreamC2Ev(ptr noundef nonnull align 8 dereferenceable(8) %this) unnamed_addr #4 comdat align 2 {
entry:
  %this.addr = alloca ptr, align 8
  store ptr %this, ptr %this.addr, align 8
  %this1 = load ptr, ptr %this.addr, align 8
  store ptr getelementptr inbounds ({ [9 x ptr] }, ptr @_ZTVN6google8protobuf2io19ZeroCopyInputStreamE, i32 0, i32 0, i32 2), ptr %this1, align 8
  ret void
}

; Function Attrs: mustprogress uwtable
define void @_ZN6google8protobuf2io15CordInputStreamC2EPKN4absl12lts_202308024CordE(ptr noundef nonnull align 8 dereferenceable(200) %this, ptr noundef %cord) unnamed_addr #5 align 2 personality ptr @__gxx_personality_v0 {
entry:
  %this.addr = alloca ptr, align 8
  %cord.addr = alloca ptr, align 8
  %exn.slot = alloca ptr, align 8
  %ehselector.slot = alloca i32, align 4
  store ptr %this, ptr %this.addr, align 8
  store ptr %cord, ptr %cord.addr, align 8
  %this1 = load ptr, ptr %this.addr, align 8
  call void @_ZN6google8protobuf2io19ZeroCopyInputStreamC2Ev(ptr noundef nonnull align 8 dereferenceable(8) %this1) #3
  store ptr getelementptr inbounds ({ [9 x ptr] }, ptr @_ZTVN6google8protobuf2io15CordInputStreamE, i32 0, i32 0, i32 2), ptr %this1, align 8
  %it_ = getelementptr inbounds %"class.google::protobuf::io::CordInputStream", ptr %this1, i32 0, i32 1
  %0 = load ptr, ptr %cord.addr, align 8
  invoke void @_ZNK4absl12lts_202308024Cord10char_beginEv(ptr sret(%"class.absl::lts_20230802::Cord::CharIterator") align 8 %it_, ptr noundef nonnull align 8 dereferenceable(16) %0)
          to label %invoke.cont unwind label %lpad

invoke.cont:                                      ; preds = %entry
  %length_ = getelementptr inbounds %"class.google::protobuf::io::CordInputStream", ptr %this1, i32 0, i32 2
  %1 = load ptr, ptr %cord.addr, align 8
  %call = invoke noundef i64 @_ZNK4absl12lts_202308024Cord4sizeEv(ptr noundef nonnull align 8 dereferenceable(16) %1)
          to label %invoke.cont2 unwind label %lpad

invoke.cont2:                                     ; preds = %invoke.cont
  store i64 %call, ptr %length_, align 8
  %bytes_remaining_ = getelementptr inbounds %"class.google::protobuf::io::CordInputStream", ptr %this1, i32 0, i32 3
  %length_3 = getelementptr inbounds %"class.google::protobuf::io::CordInputStream", ptr %this1, i32 0, i32 2
  %2 = load i64, ptr %length_3, align 8
  store i64 %2, ptr %bytes_remaining_, align 8
  %call5 = invoke noundef zeroext i1 @_ZN6google8protobuf2io15CordInputStream13LoadChunkDataEv(ptr noundef nonnull align 8 dereferenceable(200) %this1)
          to label %invoke.cont4 unwind label %lpad

invoke.cont4:                                     ; preds = %invoke.cont2
  ret void

lpad:                                             ; preds = %invoke.cont2, %invoke.cont, %entry
  %3 = landingpad { ptr, i32 }
          cleanup
  %4 = extractvalue { ptr, i32 } %3, 0
  store ptr %4, ptr %exn.slot, align 8
  %5 = extractvalue { ptr, i32 } %3, 1
  store i32 %5, ptr %ehselector.slot, align 4
  call void @_ZN6google8protobuf2io19ZeroCopyInputStreamD2Ev(ptr noundef nonnull align 8 dereferenceable(8) %this1) #3
  br label %eh.resume

eh.resume:                                        ; preds = %lpad
  %exn = load ptr, ptr %exn.slot, align 8
  %sel = load i32, ptr %ehselector.slot, align 4
  %lpad.val = insertvalue { ptr, i32 } poison, ptr %exn, 0
  %lpad.val6 = insertvalue { ptr, i32 } %lpad.val, i32 %sel, 1
  resume { ptr, i32 } %lpad.val6
}