; Function Attrs: mustprogress uwtable
define void @_ZN6google8protobuf2io15CordInputStreamC2EPKN4absl12lts_202308024CordE(ptr noundef nonnull align 8 dereferenceable(200) %this, ptr noundef %cord) unnamed_addr #5 align 2 personality ptr @__gxx_personality_v0 {
entry:
  store ptr getelementptr inbounds ({ [9 x ptr] }, ptr @_ZTVN6google8protobuf2io15CordInputStreamE, i64 0, i32 0, i64 2), ptr %this, align 8
  %it_ = getelementptr inbounds i8, ptr %this, i64 8
  tail call void @_ZN4absl12lts_202308024Cord13ChunkIteratorC2EPKS1_(ptr noundef nonnull align 8 dereferenceable(152) %it_, ptr noundef nonnull %cord)
  %0 = load i8, ptr %cord, align 1
  %1 = and i8 %0, 1
  %cmp.i.i.not.i.i = icmp eq i8 %1, 0
  br i1 %cmp.i.i.not.i.i, label %cond.false.i.i, label %cond.true.i.i

cond.true.i.i:                                    ; preds = %entry
  %rep.i.i.i.i.i = getelementptr inbounds i8, ptr %cord, i64 8
  %2 = load ptr, ptr %rep.i.i.i.i.i, align 8
  %3 = load i64, ptr %2, align 8
  br label %invoke.cont2

cond.false.i.i:                                   ; preds = %entry
  %conv.i.i.i.i.i = sext i8 %0 to i64
  %shr.i.i.i.i.i = lshr exact i64 %conv.i.i.i.i.i, 1
  br label %invoke.cont2

invoke.cont2:                                     ; preds = %cond.false.i.i, %cond.true.i.i
  %cond.i.i = phi i64 [ %3, %cond.true.i.i ], [ %shr.i.i.i.i.i, %cond.false.i.i ]
  %length_ = getelementptr inbounds i8, ptr %this, i64 160
  store i64 %cond.i.i, ptr %length_, align 8
  %bytes_remaining_ = getelementptr inbounds i8, ptr %this, i64 168
  store i64 %cond.i.i, ptr %bytes_remaining_, align 8
  %cmp.not.i.not = icmp eq i64 %cond.i.i, 0
  br i1 %cmp.not.i.not, label %invoke.cont4, label %if.then.i

if.then.i:                                        ; preds = %invoke.cont2
  %retval.sroa.0.0.copyload.i.i.i = load i64, ptr %it_, align 8
  %retval.sroa.2.0.current_chunk_.sroa_idx.i.i.i = getelementptr inbounds i8, ptr %this, i64 16
  %retval.sroa.2.0.copyload.i.i.i = load ptr, ptr %retval.sroa.2.0.current_chunk_.sroa_idx.i.i.i, align 8
  %data_.i = getelementptr inbounds i8, ptr %this, i64 176
  store ptr %retval.sroa.2.0.copyload.i.i.i, ptr %data_.i, align 8
  br label %invoke.cont4

invoke.cont4:                                     ; preds = %if.then.i, %invoke.cont2
  %.sink1.i = phi i64 [ %retval.sroa.0.0.copyload.i.i.i, %if.then.i ], [ 0, %invoke.cont2 ]
  %4 = getelementptr inbounds i8, ptr %this, i64 192
  store i64 %.sink1.i, ptr %4, align 8
  %5 = getelementptr inbounds i8, ptr %this, i64 184
  store i64 %.sink1.i, ptr %5, align 8
  ret void
}